target datalayout = "e-m:e-p270:32:32-p271:32:32-p272:64:64-i64:64-i128:128-f80:128-n8:16:32:64-S128"
target triple = "x86_64-pc-linux-gnu"

@.str = private unnamed_addr constant [12 x i8] c"%sworkspace\00", align 1
@.str.1 = private unnamed_addr constant [7 x i8] c"%s%s.h\00", align 1
@.str.2 = private unnamed_addr constant [2 x i8] c"w\00", align 1
@__func__.codegen_inc = private unnamed_addr constant [12 x i8] c"codegen_inc\00", align 1
@.str.3 = private unnamed_addr constant [4 x i8] c"/*\0A\00", align 1
@.str.4 = private unnamed_addr constant [45 x i8] c" * This file was autogenerated by OSQP on %s\00", align 1
@.str.5 = private unnamed_addr constant [5 x i8] c" * \0A\00", align 1
@.str.6 = private unnamed_addr constant [69 x i8] c" * This file contains the prototype for the solver structure needed\0A\00", align 1
@.str.7 = private unnamed_addr constant [64 x i8] c" * by OSQP. The actual data is contained inside %sworkspace.c.\0A\00", align 1
@.str.8 = private unnamed_addr constant [6 x i8] c" */\0A\0A\00", align 1
@.str.9 = private unnamed_addr constant [5 x i8] c"%s_H\00", align 1
@.str.10 = private unnamed_addr constant [12 x i8] c"#ifndef %s\0A\00", align 1
@.str.11 = private unnamed_addr constant [13 x i8] c"#define %s\0A\0A\00", align 1
@.str.12 = private unnamed_addr constant [30 x i8] c"#include \22osqp_api_types.h\22\0A\0A\00", align 1
@.str.13 = private unnamed_addr constant [20 x i8] c"#ifdef __cplusplus\0A\00", align 1
@.str.14 = private unnamed_addr constant [14 x i8] c"extern \22C\22 {\0A\00", align 1
@.str.15 = private unnamed_addr constant [9 x i8] c"#endif\0A\0A\00", align 1
@.str.16 = private unnamed_addr constant [32 x i8] c"  extern OSQPSolver %ssolver;\0A\0A\00", align 1
@.str.17 = private unnamed_addr constant [3 x i8] c"}\0A\00", align 1
@.str.18 = private unnamed_addr constant [24 x i8] c"#endif /* ifndef %s */\0A\00", align 1

; Function Attrs: nounwind uwtable
define i64 @codegen_inc(ptr noundef %0, ptr noundef %1) #0 {
  %3 = alloca i64, align 8
  %4 = alloca ptr, align 8
  %5 = alloca ptr, align 8
  %6 = alloca [100 x i8], align 16
  %7 = alloca [1024 x i8], align 16
  %8 = alloca [102 x i8], align 16
  %9 = alloca ptr, align 8
  %10 = alloca i64, align 8
  %11 = alloca i64, align 8
  store ptr %0, ptr %4, align 8
  store ptr %1, ptr %5, align 8
  store i64 0, ptr %11, align 8
  %12 = getelementptr inbounds [100 x i8], ptr %6, i64 0, i64 0
  %13 = load ptr, ptr %5, align 8
  %14 = call i32 (ptr, ptr, ...) @sprintf(ptr noundef %12, ptr noundef @.str, ptr noundef %13) #4
  %15 = getelementptr inbounds [1024 x i8], ptr %7, i64 0, i64 0
  %16 = load ptr, ptr %4, align 8
  %17 = getelementptr inbounds [100 x i8], ptr %6, i64 0, i64 0
  %18 = call i32 (ptr, ptr, ...) @sprintf(ptr noundef %15, ptr noundef @.str.1, ptr noundef %16, ptr noundef %17) #4
  %19 = getelementptr inbounds [1024 x i8], ptr %7, i64 0, i64 0
  %20 = call noalias ptr @fopen(ptr noundef %19, ptr noundef @.str.2)
  store ptr %20, ptr %9, align 8
  %21 = load ptr, ptr %9, align 8
  %22 = icmp eq ptr %21, null
  br i1 %22, label %23, label %25

23:                                               ; preds = %2
  %24 = call i64 @_osqp_error(i32 noundef 8, ptr noundef @__func__.codegen_inc)
  store i64 %24, ptr %3, align 8
  br label %89

25:                                               ; preds = %2
  %26 = call i64 @time(ptr noundef %10) #4
  %27 = load ptr, ptr %9, align 8
  %28 = call i32 (ptr, ptr, ...) @fprintf(ptr noundef %27, ptr noundef @.str.3) #4
  %29 = load ptr, ptr %9, align 8
  %30 = call ptr @ctime(ptr noundef %10) #4
  %31 = call i32 (ptr, ptr, ...) @fprintf(ptr noundef %29, ptr noundef @.str.4, ptr noundef %30) #4
  %32 = load ptr, ptr %9, align 8
  %33 = call i32 (ptr, ptr, ...) @fprintf(ptr noundef %32, ptr noundef @.str.5) #4
  %34 = load ptr, ptr %9, align 8
  %35 = call i32 (ptr, ptr, ...) @fprintf(ptr noundef %34, ptr noundef @.str.6) #4
  %36 = load ptr, ptr %9, align 8
  %37 = load ptr, ptr %5, align 8
  %38 = call i32 (ptr, ptr, ...) @fprintf(ptr noundef %36, ptr noundef @.str.7, ptr noundef %37) #4
  %39 = load ptr, ptr %9, align 8
  %40 = call i32 (ptr, ptr, ...) @fprintf(ptr noundef %39, ptr noundef @.str.8) #4
  %41 = getelementptr inbounds [102 x i8], ptr %8, i64 0, i64 0
  %42 = getelementptr inbounds [100 x i8], ptr %6, i64 0, i64 0
  %43 = call i32 (ptr, ptr, ...) @sprintf(ptr noundef %41, ptr noundef @.str.9, ptr noundef %42) #4
  br label %44

44:                                               ; preds = %49, %25
  %45 = load i64, ptr %11, align 8
  %46 = getelementptr inbounds [102 x i8], ptr %8, i64 0, i64 %45
  %47 = load i8, ptr %46, align 1
  %48 = icmp ne i8 %47, 0
  br i1 %48, label %49, label %60

49:                                               ; preds = %44
  %50 = load i64, ptr %11, align 8
  %51 = getelementptr inbounds [102 x i8], ptr %8, i64 0, i64 %50
  %52 = load i8, ptr %51, align 1
  %53 = sext i8 %52 to i32
  %54 = call i32 @toupper(i32 noundef %53) #5
  %55 = trunc i32 %54 to i8
  %56 = load i64, ptr %11, align 8
  %57 = getelementptr inbounds [102 x i8], ptr %8, i64 0, i64 %56
  store i8 %55, ptr %57, align 1
  %58 = load i64, ptr %11, align 8
  %59 = add nsw i64 %58, 1
  store i64 %59, ptr %11, align 8
  br label %44, !llvm.loop !4

60:                                               ; preds = %44
  %61 = load ptr, ptr %9, align 8
  %62 = getelementptr inbounds [102 x i8], ptr %8, i64 0, i64 0
  %63 = call i32 (ptr, ptr, ...) @fprintf(ptr noundef %61, ptr noundef @.str.10, ptr noundef %62) #4
  %64 = load ptr, ptr %9, align 8
  %65 = getelementptr inbounds [102 x i8], ptr %8, i64 0, i64 0
  %66 = call i32 (ptr, ptr, ...) @fprintf(ptr noundef %64, ptr noundef @.str.11, ptr noundef %65) #4
  %67 = load ptr, ptr %9, align 8
  %68 = call i32 (ptr, ptr, ...) @fprintf(ptr noundef %67, ptr noundef @.str.12) #4
  %69 = load ptr, ptr %9, align 8
  %70 = call i32 (ptr, ptr, ...) @fprintf(ptr noundef %69, ptr noundef @.str.13) #4
  %71 = load ptr, ptr %9, align 8
  %72 = call i32 (ptr, ptr, ...) @fprintf(ptr noundef %71, ptr noundef @.str.14) #4
  %73 = load ptr, ptr %9, align 8
  %74 = call i32 (ptr, ptr, ...) @fprintf(ptr noundef %73, ptr noundef @.str.15) #4
  %75 = load ptr, ptr %9, align 8
  %76 = load ptr, ptr %5, align 8
  %77 = call i32 (ptr, ptr, ...) @fprintf(ptr noundef %75, ptr noundef @.str.16, ptr noundef %76) #4
  %78 = load ptr, ptr %9, align 8
  %79 = call i32 (ptr, ptr, ...) @fprintf(ptr noundef %78, ptr noundef @.str.13) #4
  %80 = load ptr, ptr %9, align 8
  %81 = call i32 (ptr, ptr, ...) @fprintf(ptr noundef %80, ptr noundef @.str.17) #4
  %82 = load ptr, ptr %9, align 8
  %83 = call i32 (ptr, ptr, ...) @fprintf(ptr noundef %82, ptr noundef @.str.15) #4
  %84 = load ptr, ptr %9, align 8
  %85 = getelementptr inbounds [102 x i8], ptr %8, i64 0, i64 0
  %86 = call i32 (ptr, ptr, ...) @fprintf(ptr noundef %84, ptr noundef @.str.18, ptr noundef %85) #4
  %87 = load ptr, ptr %9, align 8
  %88 = call i32 @fclose(ptr noundef %87)
  store i64 0, ptr %3, align 8
  br label %89

89:                                               ; preds = %60, %23
  %90 = load i64, ptr %3, align 8
  ret i64 %90
}