; Function Attrs: nounwind uwtable
define i64 @codegen_inc(ptr noundef %0, ptr noundef %1) local_unnamed_addr #0 {
  %3 = alloca [100 x i8], align 16
  %4 = alloca [1024 x i8], align 16
  %5 = alloca [102 x i8], align 16
  %6 = alloca i64, align 8
  %7 = call i32 (ptr, ptr, ...) @sprintf(ptr noundef nonnull dereferenceable(1) %3, ptr noundef nonnull dereferenceable(1) @.str, ptr noundef %1) #8
  %8 = call i32 (ptr, ptr, ...) @sprintf(ptr noundef nonnull dereferenceable(1) %4, ptr noundef nonnull dereferenceable(1) @.str.1, ptr noundef %0, ptr noundef nonnull %3) #8
  %9 = call noalias ptr @fopen(ptr noundef nonnull %4, ptr noundef nonnull @.str.2)
  %10 = icmp eq ptr %9, null
  br i1 %10, label %11, label %13

11:                                               ; preds = %2
  %12 = call i64 @_osqp_error(i32 noundef 8, ptr noundef nonnull @__func__.codegen_inc) #8
  br label %44

13:                                               ; preds = %2
  %14 = call i64 @time(ptr noundef nonnull %6) #8
  %15 = call i64 @fwrite(ptr nonnull @.str.3, i64 3, i64 1, ptr nonnull %9)
  %16 = call ptr @ctime(ptr noundef nonnull %6) #8
  %17 = call i32 (ptr, ptr, ...) @fprintf(ptr noundef nonnull %9, ptr noundef nonnull @.str.4, ptr noundef %16) #8
  %18 = call i64 @fwrite(ptr nonnull @.str.5, i64 4, i64 1, ptr nonnull %9)
  %19 = call i64 @fwrite(ptr nonnull @.str.6, i64 68, i64 1, ptr nonnull %9)
  %20 = call i32 (ptr, ptr, ...) @fprintf(ptr noundef nonnull %9, ptr noundef nonnull @.str.7, ptr noundef %1) #8
  %21 = call i64 @fwrite(ptr nonnull @.str.8, i64 5, i64 1, ptr nonnull %9)
  %22 = call i32 (ptr, ptr, ...) @sprintf(ptr noundef nonnull dereferenceable(1) %5, ptr noundef nonnull dereferenceable(1) @.str.9, ptr noundef nonnull %3) #8
  %23 = load i8, ptr %5, align 16
  %.not30 = icmp eq i8 %23, 0
  br i1 %.not30, label %._crit_edge, label %.lr.ph

.lr.ph:                                           ; preds = %13, %.lr.ph
  %24 = phi i8 [ %31, %.lr.ph ], [ %23, %13 ]
  %25 = phi ptr [ %30, %.lr.ph ], [ %5, %13 ]
  %.031 = phi i64 [ %29, %.lr.ph ], [ 0, %13 ]
  %26 = sext i8 %24 to i32
  %27 = call i32 @toupper(i32 noundef %26) #9
  %28 = trunc i32 %27 to i8
  store i8 %28, ptr %25, align 1
  %29 = add nuw nsw i64 %.031, 1
  %30 = getelementptr inbounds [102 x i8], ptr %5, i64 0, i64 %29
  %31 = load i8, ptr %30, align 1
  %.not = icmp eq i8 %31, 0
  br i1 %.not, label %._crit_edge, label %.lr.ph, !llvm.loop !4

._crit_edge:                                      ; preds = %.lr.ph, %13
  %32 = call i32 (ptr, ptr, ...) @fprintf(ptr noundef nonnull %9, ptr noundef nonnull @.str.10, ptr noundef nonnull %5) #8
  %33 = call i32 (ptr, ptr, ...) @fprintf(ptr noundef nonnull %9, ptr noundef nonnull @.str.11, ptr noundef nonnull %5) #8
  %34 = call i64 @fwrite(ptr nonnull @.str.12, i64 29, i64 1, ptr nonnull %9)
  %35 = call i64 @fwrite(ptr nonnull @.str.13, i64 19, i64 1, ptr nonnull %9)
  %36 = call i64 @fwrite(ptr nonnull @.str.14, i64 13, i64 1, ptr nonnull %9)
  %37 = call i64 @fwrite(ptr nonnull @.str.15, i64 8, i64 1, ptr nonnull %9)
  %38 = call i32 (ptr, ptr, ...) @fprintf(ptr noundef nonnull %9, ptr noundef nonnull @.str.16, ptr noundef %1) #8
  %39 = call i64 @fwrite(ptr nonnull @.str.13, i64 19, i64 1, ptr nonnull %9)
  %40 = call i64 @fwrite(ptr nonnull @.str.17, i64 2, i64 1, ptr nonnull %9)
  %41 = call i64 @fwrite(ptr nonnull @.str.15, i64 8, i64 1, ptr nonnull %9)
  %42 = call i32 (ptr, ptr, ...) @fprintf(ptr noundef nonnull %9, ptr noundef nonnull @.str.18, ptr noundef nonnull %5) #8
  %43 = call i32 @fclose(ptr noundef nonnull %9)
  br label %44

44:                                               ; preds = %._crit_edge, %11
  %.027 = phi i64 [ %12, %11 ], [ 0, %._crit_edge ]
  ret i64 %.027
}